; Function Attrs: mustprogress nounwind uwtable
define hidden noundef ptr @_ZN11OptoRuntime17new_instance_TypeEv() #0 align 2 {
  %1 = tail call noundef ptr @_ZN9TypeTuple6fieldsEj(i32 noundef 1) #12
  %2 = load ptr, ptr @_ZN11TypeInstPtr7NOTNULLE, align 8
  %3 = getelementptr inbounds i8, ptr %1, i64 40
  store ptr %2, ptr %3, align 8
  %4 = tail call noundef ptr @_ZN9TypeTuple4makeEjPPK4Type(i32 noundef 6, ptr noundef %1) #12
  %5 = tail call noundef ptr @_ZN9TypeTuple6fieldsEj(i32 noundef 1) #12
  %6 = load ptr, ptr @_ZN10TypeRawPtr7NOTNULLE, align 8
  %7 = getelementptr inbounds i8, ptr %5, i64 40
  store ptr %6, ptr %7, align 8
  %8 = tail call noundef ptr @_ZN9TypeTuple4makeEjPPK4Type(i32 noundef 6, ptr noundef %5) #12
  %9 = tail call noundef ptr @_ZN8TypeFunc4makeEPK9TypeTupleS2_(ptr noundef %4, ptr noundef %8) #12
  ret ptr %9
}